target datalayout = "e-m:e-p270:32:32-p271:32:32-p272:64:64-i64:64-i128:128-f80:128-n8:16:32:64-S128"
target triple = "x86_64-pc-linux-gnu"

%struct.pmix_class_t = type { ptr, ptr, ptr, ptr, i32, i32, ptr, ptr, i64 }
%union.pthread_mutex_t = type { %struct.__pthread_mutex_s }
%struct.__pthread_mutex_s = type { i32, i32, i32, i32, i32, i16, i16, %struct.__pthread_internal_list }
%struct.__pthread_internal_list = type { ptr, ptr }
%struct.pmix_tma = type { ptr, ptr, ptr, ptr, ptr, ptr, ptr, ptr }
%struct.pmix_object_t = type { %union.pthread_mutex_t, ptr, i32, %struct.pmix_tma }
%struct.timeval = type { i64, i64 }
%struct.pmix_output_desc_t = type { i8, i8, i32, i8, i32, ptr, ptr, i32, ptr, i32, i8, i8, i8, i8, ptr, i32, i32 }
%struct.prte_process_info_t = type { %struct.pmix_proc, %struct.pmix_proc, ptr, %struct.pmix_proc, i32, i32, i32, ptr, ptr, i32, i8, ptr, i16, ptr, ptr, i8, ptr, i8 }
%struct.pmix_proc = type { [256 x i8], i32 }
%struct.pmix_list_t = type { %struct.pmix_object_t, %struct.pmix_list_item_t, i64 }
%struct.pmix_list_item_t = type { %struct.pmix_object_t, ptr, ptr, i32 }
%struct.event = type { %struct.event_callback, %union.anon.0, i32, ptr, %union.anon.2, i16, i16, %struct.timeval }
%struct.event_callback = type { %struct.anon, i16, i8, i8, %union.anon, ptr }
%struct.anon = type { ptr, ptr }
%union.anon = type { ptr }
%union.anon.0 = type { %struct.anon.1 }
%struct.anon.1 = type { ptr, ptr }
%union.anon.2 = type { %struct.anon.3 }
%struct.anon.3 = type { %struct.anon.4, %struct.timeval }
%struct.anon.4 = type { ptr, ptr }
%struct.prte_oob_tcp_hdr_t = type { %struct.pmix_proc, %struct.pmix_proc, i32, i32, i32, i8, [32 x i8] }
%struct.prte_oob_tcp_peer_t = type { %struct.pmix_list_item_t, %struct.pmix_proc, ptr, i32, %struct.pmix_list_t, ptr, i32, i32, %struct.event, i8, %struct.event, i8, %struct.event, i8, %struct.pmix_list_t, ptr, ptr }

@pmix_output_info = external global [0 x %struct.pmix_output_desc_t], align 8
@prte_process_info = external global %struct.prte_process_info_t, align 8
@.str.50 = private unnamed_addr constant [21 x i8] c"pthread_mutex_lock()\00", align 1
@.str.51 = private unnamed_addr constant [27 x i8] c"%s:tcp:recv:handler called\00", align 1
@.str.52 = private unnamed_addr constant [61 x i8] c"%s prte_oob_tcp_recv_connect: fcntl(F_GETFL) failed: %s (%d)\00", align 1
@.str.53 = private unnamed_addr constant [61 x i8] c"%s prte_oob_tcp_recv_connect: fcntl(F_SETFL) failed: %s (%d)\00", align 1
@.str.54 = private unnamed_addr constant [81 x i8] c"%s-%s prte_oob_tcp_recv_connect: rejected connection from %s connection state %d\00", align 1

; Function Attrs: inlinehint nounwind uwtable
define internal void @pmix_tma_free(ptr noundef %0, ptr noundef %1) #3 {
  %3 = alloca ptr, align 8
  %4 = alloca ptr, align 8
  store ptr %0, ptr %3, align 8, !tbaa !66
  store ptr %1, ptr %4, align 8, !tbaa !77
  %5 = load ptr, ptr %3, align 8, !tbaa !66
  %6 = icmp ne ptr null, %5
  br i1 %6, label %7, label %13

7:                                                ; preds = %2
  %8 = load ptr, ptr %3, align 8, !tbaa !66
  %9 = getelementptr inbounds nuw %struct.pmix_tma, ptr %8, i32 0, i32 5
  %10 = load ptr, ptr %9, align 8, !tbaa !102
  %11 = load ptr, ptr %3, align 8, !tbaa !66
  %12 = load ptr, ptr %4, align 8, !tbaa !77
  call void %10(ptr noundef %11, ptr noundef %12)
  br label %15

13:                                               ; preds = %2
  %14 = load ptr, ptr %4, align 8, !tbaa !77
  call void @free(ptr noundef %14) #12
  br label %15

15:                                               ; preds = %13, %7
  ret void
}

; Function Attrs: inlinehint nounwind uwtable
define internal void @pmix_obj_run_destructors(ptr noundef %0) #3 {
  %2 = alloca ptr, align 8
  %3 = alloca ptr, align 8
  store ptr %0, ptr %2, align 8, !tbaa !64
  call void @llvm.lifetime.start.p0(i64 8, ptr %3) #12
  %4 = load ptr, ptr %2, align 8, !tbaa !64
  %5 = getelementptr inbounds nuw %struct.pmix_object_t, ptr %4, i32 0, i32 1
  %6 = load ptr, ptr %5, align 8, !tbaa !28
  %7 = getelementptr inbounds nuw %struct.pmix_class_t, ptr %6, i32 0, i32 7
  %8 = load ptr, ptr %7, align 8, !tbaa !100
  store ptr %8, ptr %3, align 8, !tbaa !77
  br label %9

9:                                                ; preds = %13, %1
  %10 = load ptr, ptr %3, align 8, !tbaa !77
  %11 = load ptr, ptr %10, align 8, !tbaa !77
  %12 = icmp ne ptr null, %11
  br i1 %12, label %13, label %19

13:                                               ; preds = %9
  %14 = load ptr, ptr %3, align 8, !tbaa !77
  %15 = load ptr, ptr %14, align 8, !tbaa !77
  %16 = load ptr, ptr %2, align 8, !tbaa !64
  call void %15(ptr noundef %16)
  %17 = load ptr, ptr %3, align 8, !tbaa !77
  %18 = getelementptr inbounds nuw ptr, ptr %17, i32 1
  store ptr %18, ptr %3, align 8, !tbaa !77
  br label %9, !llvm.loop !101

19:                                               ; preds = %9
  call void @llvm.lifetime.end.p0(i64 8, ptr %3) #12
  ret void
}

; Function Attrs: alwaysinline nounwind uwtable
define internal i32 @pmix_obj_update(ptr noundef %0, i32 noundef %1) #7 {
  %3 = alloca ptr, align 8
  %4 = alloca i32, align 4
  %5 = alloca i32, align 4
  store ptr %0, ptr %3, align 8, !tbaa !64
  store i32 %1, ptr %4, align 4, !tbaa !25
  call void @llvm.lifetime.start.p0(i64 4, ptr %5) #12
  %6 = load ptr, ptr %3, align 8, !tbaa !64
  %7 = getelementptr inbounds nuw %struct.pmix_object_t, ptr %6, i32 0, i32 0
  %8 = call i32 @pthread_mutex_lock(ptr noundef %7) #12
  store i32 %8, ptr %5, align 4, !tbaa !25
  %9 = load i32, ptr %5, align 4, !tbaa !25
  %10 = icmp eq i32 %9, 35
  br i1 %10, label %11, label %14

11:                                               ; preds = %2
  %12 = load i32, ptr %5, align 4, !tbaa !25
  %13 = call ptr @__errno_location() #14
  store i32 %12, ptr %13, align 4, !tbaa !25
  call void @perror(ptr noundef @.str.50)
  call void @abort() #15
  unreachable

14:                                               ; preds = %2
  %15 = load i32, ptr %4, align 4, !tbaa !25
  %16 = load ptr, ptr %3, align 8, !tbaa !64
  %17 = getelementptr inbounds nuw %struct.pmix_object_t, ptr %16, i32 0, i32 2
  %18 = load i32, ptr %17, align 8, !tbaa !29
  %19 = add nsw i32 %18, %15
  store i32 %19, ptr %17, align 8, !tbaa !29
  store i32 %19, ptr %5, align 4, !tbaa !25
  %20 = load ptr, ptr %3, align 8, !tbaa !64
  %21 = getelementptr inbounds nuw %struct.pmix_object_t, ptr %20, i32 0, i32 0
  %22 = call i32 @pthread_mutex_unlock(ptr noundef %21) #12
  %23 = load i32, ptr %5, align 4, !tbaa !25
  call void @llvm.lifetime.end.p0(i64 4, ptr %5) #12
  ret i32 %23
}

; Function Attrs: inlinehint nounwind uwtable
define internal void @pmix_atomic_rmb() #3 {
  fence acquire
  ret void
}

; Function Attrs: nounwind uwtable
define internal void @recv_handler(i32 noundef %0, i16 noundef signext %1, ptr noundef %2) #0 {
  %4 = alloca i32, align 4
  %5 = alloca i16, align 2
  %6 = alloca ptr, align 8
  %7 = alloca ptr, align 8
  %8 = alloca i32, align 4
  %9 = alloca %struct.prte_oob_tcp_hdr_t, align 4
  %10 = alloca ptr, align 8
  %11 = alloca ptr, align 8
  store i32 %0, ptr %4, align 4, !tbaa !25
  store i16 %1, ptr %5, align 2, !tbaa !83
  store ptr %2, ptr %6, align 8, !tbaa !77
  call void @llvm.lifetime.start.p0(i64 8, ptr %7) #12
  %12 = load ptr, ptr %6, align 8, !tbaa !77
  store ptr %12, ptr %7, align 8, !tbaa !77
  call void @llvm.lifetime.start.p0(i64 4, ptr %8) #12
  call void @llvm.lifetime.start.p0(i64 568, ptr %9) #12
  call void @llvm.lifetime.start.p0(i64 8, ptr %10) #12
  call void @pmix_atomic_rmb()
  %13 = load i32, ptr @prte_oob_base, align 8, !tbaa !10
  %14 = icmp sge i32 %13, 0
  br i1 %14, label %15, label %28

15:                                               ; preds = %3
  %16 = load i32, ptr @prte_oob_base, align 8, !tbaa !10
  %17 = icmp slt i32 %16, 64
  br i1 %17, label %18, label %28

18:                                               ; preds = %15
  %19 = load i32, ptr @prte_oob_base, align 8, !tbaa !10
  %20 = sext i32 %19 to i64
  %21 = getelementptr inbounds [0 x %struct.pmix_output_desc_t], ptr @pmix_output_info, i64 0, i64 %20
  %22 = getelementptr inbounds nuw %struct.pmix_output_desc_t, ptr %21, i32 0, i32 2
  %23 = load i32, ptr %22, align 4, !tbaa !22
  %24 = icmp sge i32 %23, 7
  br i1 %24, label %25, label %28

25:                                               ; preds = %18
  %26 = load i32, ptr @prte_oob_base, align 8, !tbaa !10
  %27 = call ptr @prte_util_print_name_args(ptr noundef @prte_process_info)
  call void (i32, ptr, ...) @pmix_output(i32 noundef %26, ptr noundef @.str.51, ptr noundef %27)
  br label %28

28:                                               ; preds = %25, %18, %15, %3
  %29 = load i32, ptr %4, align 4, !tbaa !25
  %30 = call i32 @prte_oob_tcp_peer_recv_connect_ack(ptr noundef null, i32 noundef %29, ptr noundef %9)
  %31 = icmp ne i32 0, %30
  br i1 %31, label %32, label %33

32:                                               ; preds = %28
  br label %102

33:                                               ; preds = %28
  %34 = getelementptr inbounds nuw %struct.prte_oob_tcp_hdr_t, ptr %9, i32 0, i32 5
  %35 = load i8, ptr %34, align 4, !tbaa !120
  %36 = zext i8 %35 to i32
  %37 = icmp eq i32 1, %36
  br i1 %37, label %38, label %101

38:                                               ; preds = %33
  %39 = getelementptr inbounds nuw %struct.prte_oob_tcp_hdr_t, ptr %9, i32 0, i32 0
  %40 = call ptr @prte_oob_tcp_peer_lookup(ptr noundef %39)
  store ptr %40, ptr %10, align 8, !tbaa !77
  %41 = icmp eq ptr null, %40
  br i1 %41, label %42, label %44

42:                                               ; preds = %38
  %43 = load ptr, ptr %10, align 8, !tbaa !77
  call void @prte_oob_tcp_peer_close(ptr noundef %43)
  br label %102

44:                                               ; preds = %38
  %45 = load i32, ptr %4, align 4, !tbaa !25
  %46 = call i32 (i32, i32, ...) @fcntl(i32 noundef %45, i32 noundef 3, i32 noundef 0)
  store i32 %46, ptr %8, align 4, !tbaa !25
  %47 = icmp slt i32 %46, 0
  br i1 %47, label %48, label %55

48:                                               ; preds = %44
  %49 = call ptr @prte_util_print_name_args(ptr noundef @prte_process_info)
  %50 = call ptr @__errno_location() #14
  %51 = load i32, ptr %50, align 4, !tbaa !25
  %52 = call ptr @strerror(i32 noundef %51) #12
  %53 = call ptr @__errno_location() #14
  %54 = load i32, ptr %53, align 4, !tbaa !25
  call void (i32, ptr, ...) @pmix_output(i32 noundef 0, ptr noundef @.str.52, ptr noundef %49, ptr noundef %52, i32 noundef %54)
  br label %70

55:                                               ; preds = %44
  %56 = load i32, ptr %8, align 4, !tbaa !25
  %57 = or i32 %56, 2048
  store i32 %57, ptr %8, align 4, !tbaa !25
  %58 = load i32, ptr %4, align 4, !tbaa !25
  %59 = load i32, ptr %8, align 4, !tbaa !25
  %60 = call i32 (i32, i32, ...) @fcntl(i32 noundef %58, i32 noundef 4, i32 noundef %59)
  %61 = icmp slt i32 %60, 0
  br i1 %61, label %62, label %69

62:                                               ; preds = %55
  %63 = call ptr @prte_util_print_name_args(ptr noundef @prte_process_info)
  %64 = call ptr @__errno_location() #14
  %65 = load i32, ptr %64, align 4, !tbaa !25
  %66 = call ptr @strerror(i32 noundef %65) #12
  %67 = call ptr @__errno_location() #14
  %68 = load i32, ptr %67, align 4, !tbaa !25
  call void (i32, ptr, ...) @pmix_output(i32 noundef 0, ptr noundef @.str.53, ptr noundef %63, ptr noundef %66, i32 noundef %68)
  br label %69

69:                                               ; preds = %62, %55
  br label %70

70:                                               ; preds = %69, %48
  %71 = load i32, ptr %4, align 4, !tbaa !25
  %72 = load ptr, ptr %10, align 8, !tbaa !77
  %73 = getelementptr inbounds nuw %struct.prte_oob_tcp_peer_t, ptr %72, i32 0, i32 3
  store i32 %71, ptr %73, align 8, !tbaa !122
  %74 = load ptr, ptr %10, align 8, !tbaa !77
  %75 = call zeroext i1 @prte_oob_tcp_peer_accept(ptr noundef %74)
  %76 = zext i1 %75 to i32
  %77 = icmp eq i32 %76, 0
  br i1 %77, label %78, label %100

78:                                               ; preds = %70
  %79 = load i32, ptr @prte_oob_base, align 8, !tbaa !10
  %80 = call i32 @pmix_output_get_verbosity(i32 noundef %79)
  %81 = icmp sle i32 7, %80
  br i1 %81, label %82, label %92

82:                                               ; preds = %78
  %83 = call ptr @prte_util_print_name_args(ptr noundef @prte_process_info)
  %84 = load ptr, ptr %10, align 8, !tbaa !77
  %85 = getelementptr inbounds nuw %struct.prte_oob_tcp_peer_t, ptr %84, i32 0, i32 1
  %86 = call ptr @prte_util_print_name_args(ptr noundef %85)
  %87 = getelementptr inbounds nuw %struct.prte_oob_tcp_hdr_t, ptr %9, i32 0, i32 0
  %88 = call ptr @prte_util_print_name_args(ptr noundef %87)
  %89 = load ptr, ptr %10, align 8, !tbaa !77
  %90 = getelementptr inbounds nuw %struct.prte_oob_tcp_peer_t, ptr %89, i32 0, i32 6
  %91 = load i32, ptr %90, align 8, !tbaa !129
  call void (i32, ptr, ...) @pmix_output(i32 noundef 0, ptr noundef @.str.54, ptr noundef %83, ptr noundef %86, ptr noundef %88, i32 noundef %91)
  br label %92

92:                                               ; preds = %82, %78
  br label %93

93:                                               ; preds = %92
  %94 = load i32, ptr %4, align 4, !tbaa !25
  %95 = call i32 @shutdown(i32 noundef %94, i32 noundef 2) #12
  %96 = load i32, ptr %4, align 4, !tbaa !25
  %97 = call i32 @close(i32 noundef %96)
  br label %98

98:                                               ; preds = %93
  br label %99

99:                                               ; preds = %98
  br label %100

100:                                              ; preds = %99, %70
  br label %101

101:                                              ; preds = %100, %33
  br label %102

102:                                              ; preds = %101, %42, %32
  br label %103

103:                                              ; preds = %102
  call void @llvm.lifetime.start.p0(i64 8, ptr %11) #12
  %104 = load ptr, ptr %7, align 8, !tbaa !77
  store ptr %104, ptr %11, align 8, !tbaa !64
  %105 = load ptr, ptr %11, align 8, !tbaa !64
  %106 = call i32 @pmix_obj_update(ptr noundef %105, i32 noundef -1)
  %107 = icmp eq i32 0, %106
  br i1 %107, label %108, label %122

108:                                              ; preds = %103
  %109 = load ptr, ptr %11, align 8, !tbaa !64
  call void @pmix_obj_run_destructors(ptr noundef %109)
  %110 = load ptr, ptr %11, align 8, !tbaa !64
  %111 = getelementptr inbounds nuw %struct.pmix_object_t, ptr %110, i32 0, i32 3
  %112 = getelementptr inbounds nuw %struct.pmix_tma, ptr %111, i32 0, i32 5
  %113 = load ptr, ptr %112, align 8, !tbaa !73
  %114 = icmp ne ptr null, %113
  br i1 %114, label %115, label %119

115:                                              ; preds = %108
  %116 = load ptr, ptr %11, align 8, !tbaa !64
  %117 = getelementptr inbounds nuw %struct.pmix_object_t, ptr %116, i32 0, i32 3
  %118 = load ptr, ptr %7, align 8, !tbaa !77
  call void @pmix_tma_free(ptr noundef %117, ptr noundef %118)
  br label %121

119:                                              ; preds = %108
  %120 = load ptr, ptr %7, align 8, !tbaa !77
  call void @free(ptr noundef %120) #12
  br label %121

121:                                              ; preds = %119, %115
  store ptr null, ptr %7, align 8, !tbaa !77
  br label %122

122:                                              ; preds = %121, %103
  call void @llvm.lifetime.end.p0(i64 8, ptr %11) #12
  br label %123

123:                                              ; preds = %122
  br label %124

124:                                              ; preds = %123
  call void @llvm.lifetime.end.p0(i64 8, ptr %10) #12
  call void @llvm.lifetime.end.p0(i64 568, ptr %9) #12
  call void @llvm.lifetime.end.p0(i64 4, ptr %8) #12
  call void @llvm.lifetime.end.p0(i64 8, ptr %7) #12
  ret void
}