; Function Attrs: nounwind uwtable
define internal void @recv_handler(i32 noundef %0, i16 signext %1, ptr noundef %2) #0 {
  %4 = alloca %struct.prte_oob_tcp_hdr_t, align 4
  call void @llvm.lifetime.start.p0(i64 568, ptr nonnull %4) #16
  fence acquire
  %5 = load i32, ptr @prte_oob_base, align 8, !tbaa !3
  %or.cond = icmp ult i32 %5, 64
  br i1 %or.cond, label %6, label %13

6:                                                ; preds = %3
  %7 = zext nneg i32 %5 to i64
  %8 = getelementptr inbounds nuw [0 x %struct.pmix_output_desc_t], ptr @pmix_output_info, i64 0, i64 %7, i32 2
  %9 = load i32, ptr %8, align 4, !tbaa !20
  %10 = icmp sgt i32 %9, 6
  br i1 %10, label %11, label %13

11:                                               ; preds = %6
  %12 = tail call ptr @prte_util_print_name_args(ptr noundef nonnull @prte_process_info) #16
  tail call void (i32, ptr, ...) @pmix_output(i32 noundef %5, ptr noundef nonnull @.str.51, ptr noundef %12) #16
  br label %13

13:                                               ; preds = %11, %6, %3
  %14 = call i32 @prte_oob_tcp_peer_recv_connect_ack(ptr noundef null, i32 noundef %0, ptr noundef nonnull %4) #16
  %15 = icmp eq i32 %14, 0
  %16 = getelementptr inbounds nuw i8, ptr %4, i64 532
  %17 = load i8, ptr %16, align 4
  %18 = icmp eq i8 %17, 1
  %or.cond5 = select i1 %15, i1 %18, i1 false
  br i1 %or.cond5, label %19, label %52

19:                                               ; preds = %13
  %20 = call ptr @prte_oob_tcp_peer_lookup(ptr noundef nonnull %4) #16
  %21 = icmp eq ptr %20, null
  br i1 %21, label %22, label %23

22:                                               ; preds = %19
  call void @prte_oob_tcp_peer_close(ptr noundef null) #16
  br label %52

23:                                               ; preds = %19
  %24 = call i32 (i32, i32, ...) @fcntl(i32 noundef %0, i32 noundef 3, i32 noundef 0) #16
  %25 = icmp slt i32 %24, 0
  br i1 %25, label %.sink.split, label %26

26:                                               ; preds = %23
  %27 = or i32 %24, 2048
  %28 = call i32 (i32, i32, ...) @fcntl(i32 noundef %0, i32 noundef 4, i32 noundef %27) #16
  %29 = icmp slt i32 %28, 0
  br i1 %29, label %.sink.split, label %35

.sink.split:                                      ; preds = %26, %23
  %.str.53.sink = phi ptr [ @.str.52, %23 ], [ @.str.53, %26 ]
  %30 = call ptr @prte_util_print_name_args(ptr noundef nonnull @prte_process_info) #16
  %31 = tail call ptr @__errno_location() #18
  %32 = load i32, ptr %31, align 4, !tbaa !23
  %33 = call ptr @strerror(i32 noundef %32) #16
  %34 = load i32, ptr %31, align 4, !tbaa !23
  call void (i32, ptr, ...) @pmix_output(i32 noundef 0, ptr noundef nonnull %.str.53.sink, ptr noundef %30, ptr noundef %33, i32 noundef %34) #16
  br label %35

35:                                               ; preds = %.sink.split, %26
  %36 = getelementptr inbounds nuw i8, ptr %20, i64 416
  store i32 %0, ptr %36, align 8, !tbaa !96
  %37 = call zeroext i1 @prte_oob_tcp_peer_accept(ptr noundef nonnull %20) #16
  br i1 %37, label %52, label %38

38:                                               ; preds = %35
  %39 = load i32, ptr @prte_oob_base, align 8, !tbaa !3
  %40 = call i32 @pmix_output_get_verbosity(i32 noundef %39) #16
  %41 = icmp sgt i32 %40, 6
  br i1 %41, label %42, label %49

42:                                               ; preds = %38
  %43 = call ptr @prte_util_print_name_args(ptr noundef nonnull @prte_process_info) #16
  %44 = getelementptr inbounds nuw i8, ptr %20, i64 144
  %45 = call ptr @prte_util_print_name_args(ptr noundef nonnull %44) #16
  %46 = call ptr @prte_util_print_name_args(ptr noundef nonnull %4) #16
  %47 = getelementptr inbounds nuw i8, ptr %20, i64 704
  %48 = load i32, ptr %47, align 8, !tbaa !103
  call void (i32, ptr, ...) @pmix_output(i32 noundef 0, ptr noundef nonnull @.str.54, ptr noundef %43, ptr noundef %45, ptr noundef %46, i32 noundef %48) #16
  br label %49

49:                                               ; preds = %38, %42
  %50 = call i32 @shutdown(i32 noundef %0, i32 noundef 2) #16
  %51 = call i32 @close(i32 noundef %0) #16
  br label %52

52:                                               ; preds = %22, %13, %35, %49
  %53 = call i32 @pthread_mutex_lock(ptr noundef %2) #16
  %54 = icmp eq i32 %53, 35
  br i1 %54, label %55, label %pmix_obj_update.exit

55:                                               ; preds = %52
  %56 = tail call ptr @__errno_location() #18
  store i32 35, ptr %56, align 4, !tbaa !23
  call void @perror(ptr noundef nonnull @.str.50) #20
  call void @abort() #21
  unreachable

pmix_obj_update.exit:                             ; preds = %52
  %57 = getelementptr inbounds nuw i8, ptr %2, i64 48
  %58 = load i32, ptr %57, align 8, !tbaa !27
  %59 = add nsw i32 %58, -1
  store i32 %59, ptr %57, align 8, !tbaa !27
  %60 = call i32 @pthread_mutex_unlock(ptr noundef %2) #16
  %61 = icmp eq i32 %59, 0
  br i1 %61, label %62, label %76

62:                                               ; preds = %pmix_obj_update.exit
  %63 = getelementptr inbounds nuw i8, ptr %2, i64 40
  %64 = load ptr, ptr %63, align 8, !tbaa !26
  %65 = getelementptr inbounds nuw i8, ptr %64, i64 48
  %66 = load ptr, ptr %65, align 8, !tbaa !73
  %67 = load ptr, ptr %66, align 8, !tbaa !29
  %.not6.i = icmp eq ptr %67, null
  br i1 %.not6.i, label %pmix_obj_run_destructors.exit, label %.lr.ph.i

.lr.ph.i:                                         ; preds = %62, %.lr.ph.i
  %68 = phi ptr [ %70, %.lr.ph.i ], [ %67, %62 ]
  %.07.i = phi ptr [ %69, %.lr.ph.i ], [ %66, %62 ]
  call void %68(ptr noundef %2) #16
  %69 = getelementptr inbounds nuw i8, ptr %.07.i, i64 8
  %70 = load ptr, ptr %69, align 8, !tbaa !29
  %.not.i = icmp eq ptr %70, null
  br i1 %.not.i, label %pmix_obj_run_destructors.exit, label %.lr.ph.i, !llvm.loop !74

pmix_obj_run_destructors.exit:                    ; preds = %.lr.ph.i, %62
  %71 = getelementptr inbounds nuw i8, ptr %2, i64 96
  %72 = load ptr, ptr %71, align 8, !tbaa !75
  %.not = icmp eq ptr %72, null
  br i1 %.not, label %75, label %73

73:                                               ; preds = %pmix_obj_run_destructors.exit
  %74 = getelementptr inbounds nuw i8, ptr %2, i64 56
  call void %72(ptr noundef nonnull %74, ptr noundef nonnull %2) #16
  br label %76

75:                                               ; preds = %pmix_obj_run_destructors.exit
  call void @free(ptr noundef nonnull %2) #16
  br label %76

76:                                               ; preds = %73, %75, %pmix_obj_update.exit
  call void @llvm.lifetime.end.p0(i64 568, ptr nonnull %4) #16
  ret void
}